target datalayout = "e-m:e-p270:32:32-p271:32:32-p272:64:64-i64:64-i128:128-f80:128-n8:16:32:64-S128"
target triple = "x86_64-pc-linux-gnu"

%struct.URLContext = type { ptr, ptr, ptr, ptr, i32, i32, i32, i32, %struct.AVIOInterruptCB, i64, ptr, ptr, i32 }
%struct.AVIOInterruptCB = type { ptr, ptr }
%struct.FTPContext = type { ptr, ptr, ptr, [1024 x i8], ptr, ptr, i32, i32, ptr, ptr, ptr, ptr, i64, i64, i32, ptr, i32, i32, i32, ptr, ptr, i64, i64, i32, ptr, ptr }

@ftp_delete.del_codes = internal constant [9 x i32] [i32 250, i32 421, i32 450, i32 500, i32 501, i32 502, i32 530, i32 550, i32 0], align 16
@ftp_delete.rmd_codes = internal constant [8 x i32] [i32 250, i32 421, i32 500, i32 501, i32 502, i32 530, i32 550, i32 0], align 16
@.str.69 = private unnamed_addr constant [10 x i8] c"DELE %s\0D\0A\00", align 1
@.str.70 = private unnamed_addr constant [9 x i8] c"RMD %s\0D\0A\00", align 1

; Function Attrs: nounwind uwtable
define internal void @ftp_close_data_connection(ptr noundef %0) #0 {
  %2 = alloca ptr, align 8
  store ptr %0, ptr %2, align 8, !tbaa !19
  %3 = load ptr, ptr %2, align 8, !tbaa !19
  %4 = getelementptr inbounds nuw %struct.FTPContext, ptr %3, i32 0, i32 2
  %5 = call i32 @ffurl_closep(ptr noundef %4)
  %6 = load ptr, ptr %2, align 8, !tbaa !19
  %7 = getelementptr inbounds nuw %struct.FTPContext, ptr %6, i32 0, i32 17
  store i32 5, ptr %7, align 4, !tbaa !23
  ret void
}

; Function Attrs: nounwind uwtable
define internal void @ftp_close_both_connections(ptr noundef %0) #0 {
  %2 = alloca ptr, align 8
  store ptr %0, ptr %2, align 8, !tbaa !19
  %3 = load ptr, ptr %2, align 8, !tbaa !19
  %4 = getelementptr inbounds nuw %struct.FTPContext, ptr %3, i32 0, i32 1
  %5 = call i32 @ffurl_closep(ptr noundef %4)
  %6 = load ptr, ptr %2, align 8, !tbaa !19
  call void @ftp_close_data_connection(ptr noundef %6)
  ret void
}

; Function Attrs: inlinehint nounwind uwtable
define internal i32 @ffurl_write(ptr noundef %0, ptr noundef %1, i32 noundef %2) #3 {
  %4 = alloca ptr, align 8
  %5 = alloca ptr, align 8
  %6 = alloca i32, align 4
  store ptr %0, ptr %4, align 8, !tbaa !4
  store ptr %1, ptr %5, align 8, !tbaa !9
  store i32 %2, ptr %6, align 4, !tbaa !11
  %7 = load ptr, ptr %4, align 8, !tbaa !4
  %8 = load ptr, ptr %5, align 8, !tbaa !9
  %9 = load i32, ptr %6, align 4, !tbaa !11
  %10 = call i32 @ffurl_write2(ptr noundef %7, ptr noundef %8, i32 noundef %9)
  ret i32 %10
}

; Function Attrs: nounwind uwtable
define internal i32 @ftp_close(ptr noundef %0) #0 {
  %2 = alloca ptr, align 8
  %3 = alloca ptr, align 8
  store ptr %0, ptr %2, align 8, !tbaa !4
  call void @llvm.lifetime.start.p0(i64 8, ptr %3) #9
  %4 = load ptr, ptr %2, align 8, !tbaa !4
  %5 = getelementptr inbounds nuw %struct.URLContext, ptr %4, i32 0, i32 2
  %6 = load ptr, ptr %5, align 8, !tbaa !13
  store ptr %6, ptr %3, align 8, !tbaa !19
  br label %7

7:                                                ; preds = %1
  br label %8

8:                                                ; preds = %7
  br label %9

9:                                                ; preds = %8
  %10 = load ptr, ptr %3, align 8, !tbaa !19
  call void @ftp_close_both_connections(ptr noundef %10)
  %11 = load ptr, ptr %3, align 8, !tbaa !19
  %12 = getelementptr inbounds nuw %struct.FTPContext, ptr %11, i32 0, i32 9
  call void @av_freep(ptr noundef %12)
  %13 = load ptr, ptr %3, align 8, !tbaa !19
  %14 = getelementptr inbounds nuw %struct.FTPContext, ptr %13, i32 0, i32 10
  call void @av_freep(ptr noundef %14)
  %15 = load ptr, ptr %3, align 8, !tbaa !19
  %16 = getelementptr inbounds nuw %struct.FTPContext, ptr %15, i32 0, i32 8
  call void @av_freep(ptr noundef %16)
  %17 = load ptr, ptr %3, align 8, !tbaa !19
  %18 = getelementptr inbounds nuw %struct.FTPContext, ptr %17, i32 0, i32 11
  call void @av_freep(ptr noundef %18)
  %19 = load ptr, ptr %3, align 8, !tbaa !19
  %20 = getelementptr inbounds nuw %struct.FTPContext, ptr %19, i32 0, i32 19
  call void @av_freep(ptr noundef %20)
  call void @llvm.lifetime.end.p0(i64 8, ptr %3) #9
  ret i32 0
}

; Function Attrs: nounwind uwtable
define internal i32 @ftp_send_command(ptr noundef %0, ptr noundef %1, ptr noundef %2, ptr noundef %3) #0 {
  %5 = alloca i32, align 4
  %6 = alloca ptr, align 8
  %7 = alloca ptr, align 8
  %8 = alloca ptr, align 8
  %9 = alloca ptr, align 8
  %10 = alloca i32, align 4
  %11 = alloca i32, align 4
  store ptr %0, ptr %6, align 8, !tbaa !19
  store ptr %1, ptr %7, align 8, !tbaa !9
  store ptr %2, ptr %8, align 8, !tbaa !64
  store ptr %3, ptr %9, align 8, !tbaa !62
  call void @llvm.lifetime.start.p0(i64 4, ptr %10) #9
  br label %12

12:                                               ; preds = %4
  br label %13

13:                                               ; preds = %12
  br label %14

14:                                               ; preds = %13
  %15 = load ptr, ptr %9, align 8, !tbaa !62
  %16 = icmp ne ptr %15, null
  br i1 %16, label %17, label %19

17:                                               ; preds = %14
  %18 = load ptr, ptr %9, align 8, !tbaa !62
  store ptr null, ptr %18, align 8, !tbaa !9
  br label %19

19:                                               ; preds = %17, %14
  %20 = load ptr, ptr %6, align 8, !tbaa !19
  %21 = getelementptr inbounds nuw %struct.FTPContext, ptr %20, i32 0, i32 1
  %22 = load ptr, ptr %21, align 8, !tbaa !56
  %23 = icmp ne ptr %22, null
  br i1 %23, label %25, label %24

24:                                               ; preds = %19
  store i32 -5, ptr %5, align 4
  store i32 1, ptr %11, align 4
  br label %50

25:                                               ; preds = %19
  %26 = load ptr, ptr %6, align 8, !tbaa !19
  %27 = getelementptr inbounds nuw %struct.FTPContext, ptr %26, i32 0, i32 1
  %28 = load ptr, ptr %27, align 8, !tbaa !56
  %29 = load ptr, ptr %7, align 8, !tbaa !9
  %30 = load ptr, ptr %7, align 8, !tbaa !9
  %31 = call i64 @strlen(ptr noundef %30) #10
  %32 = trunc i64 %31 to i32
  %33 = call i32 @ffurl_write(ptr noundef %28, ptr noundef %29, i32 noundef %32)
  store i32 %33, ptr %10, align 4, !tbaa !11
  %34 = icmp slt i32 %33, 0
  br i1 %34, label %35, label %37

35:                                               ; preds = %25
  %36 = load i32, ptr %10, align 4, !tbaa !11
  store i32 %36, ptr %5, align 4
  store i32 1, ptr %11, align 4
  br label %50

37:                                               ; preds = %25
  %38 = load i32, ptr %10, align 4, !tbaa !11
  %39 = icmp ne i32 %38, 0
  br i1 %39, label %41, label %40

40:                                               ; preds = %37
  store i32 -1, ptr %5, align 4
  store i32 1, ptr %11, align 4
  br label %50

41:                                               ; preds = %37
  %42 = load ptr, ptr %8, align 8, !tbaa !64
  %43 = icmp ne ptr %42, null
  br i1 %43, label %44, label %49

44:                                               ; preds = %41
  %45 = load ptr, ptr %6, align 8, !tbaa !19
  %46 = load ptr, ptr %9, align 8, !tbaa !62
  %47 = load ptr, ptr %8, align 8, !tbaa !64
  %48 = call i32 @ftp_status(ptr noundef %45, ptr noundef %46, ptr noundef %47)
  store i32 %48, ptr %5, align 4
  store i32 1, ptr %11, align 4
  br label %50

49:                                               ; preds = %41
  store i32 0, ptr %5, align 4
  store i32 1, ptr %11, align 4
  br label %50

50:                                               ; preds = %49, %44, %40, %35, %24
  call void @llvm.lifetime.end.p0(i64 4, ptr %10) #9
  %51 = load i32, ptr %5, align 4
  ret i32 %51
}

; Function Attrs: nounwind uwtable
define internal i32 @ftp_delete(ptr noundef %0) #0 {
  %2 = alloca ptr, align 8
  %3 = alloca ptr, align 8
  %4 = alloca [4096 x i8], align 16
  %5 = alloca i32, align 4
  store ptr %0, ptr %2, align 8, !tbaa !4
  call void @llvm.lifetime.start.p0(i64 8, ptr %3) #9
  %6 = load ptr, ptr %2, align 8, !tbaa !4
  %7 = getelementptr inbounds nuw %struct.URLContext, ptr %6, i32 0, i32 2
  %8 = load ptr, ptr %7, align 8, !tbaa !13
  store ptr %8, ptr %3, align 8, !tbaa !19
  call void @llvm.lifetime.start.p0(i64 4096, ptr %4) #9
  call void @llvm.lifetime.start.p0(i64 4, ptr %5) #9
  %9 = load ptr, ptr %2, align 8, !tbaa !4
  %10 = load ptr, ptr %2, align 8, !tbaa !4
  %11 = getelementptr inbounds nuw %struct.URLContext, ptr %10, i32 0, i32 3
  %12 = load ptr, ptr %11, align 8, !tbaa !28
  %13 = call i32 @ftp_connect(ptr noundef %9, ptr noundef %12)
  store i32 %13, ptr %5, align 4, !tbaa !11
  %14 = icmp slt i32 %13, 0
  br i1 %14, label %15, label %16

15:                                               ; preds = %1
  br label %50

16:                                               ; preds = %1
  %17 = getelementptr inbounds [4096 x i8], ptr %4, i64 0, i64 0
  %18 = load ptr, ptr %3, align 8, !tbaa !19
  %19 = getelementptr inbounds nuw %struct.FTPContext, ptr %18, i32 0, i32 11
  %20 = load ptr, ptr %19, align 8, !tbaa !44
  %21 = call i32 (ptr, i64, ptr, ...) @snprintf(ptr noundef %17, i64 noundef 4096, ptr noundef @.str.69, ptr noundef %20) #9
  store i32 %21, ptr %5, align 4, !tbaa !11
  %22 = load i32, ptr %5, align 4, !tbaa !11
  %23 = sext i32 %22 to i64
  %24 = icmp uge i64 %23, 4096
  br i1 %24, label %25, label %26

25:                                               ; preds = %16
  store i32 -38, ptr %5, align 4, !tbaa !11
  br label %50

26:                                               ; preds = %16
  %27 = load ptr, ptr %3, align 8, !tbaa !19
  %28 = getelementptr inbounds [4096 x i8], ptr %4, i64 0, i64 0
  %29 = call i32 @ftp_send_command(ptr noundef %27, ptr noundef %28, ptr noundef @ftp_delete.del_codes, ptr noundef null)
  %30 = icmp eq i32 %29, 250
  br i1 %30, label %31, label %32

31:                                               ; preds = %26
  store i32 0, ptr %5, align 4, !tbaa !11
  br label %50

32:                                               ; preds = %26
  %33 = getelementptr inbounds [4096 x i8], ptr %4, i64 0, i64 0
  %34 = load ptr, ptr %3, align 8, !tbaa !19
  %35 = getelementptr inbounds nuw %struct.FTPContext, ptr %34, i32 0, i32 11
  %36 = load ptr, ptr %35, align 8, !tbaa !44
  %37 = call i32 (ptr, i64, ptr, ...) @snprintf(ptr noundef %33, i64 noundef 4096, ptr noundef @.str.70, ptr noundef %36) #9
  store i32 %37, ptr %5, align 4, !tbaa !11
  %38 = load i32, ptr %5, align 4, !tbaa !11
  %39 = sext i32 %38 to i64
  %40 = icmp uge i64 %39, 4096
  br i1 %40, label %41, label %42

41:                                               ; preds = %32
  store i32 -38, ptr %5, align 4, !tbaa !11
  br label %50

42:                                               ; preds = %32
  %43 = load ptr, ptr %3, align 8, !tbaa !19
  %44 = getelementptr inbounds [4096 x i8], ptr %4, i64 0, i64 0
  %45 = call i32 @ftp_send_command(ptr noundef %43, ptr noundef %44, ptr noundef @ftp_delete.rmd_codes, ptr noundef null)
  %46 = icmp eq i32 %45, 250
  br i1 %46, label %47, label %48

47:                                               ; preds = %42
  store i32 0, ptr %5, align 4, !tbaa !11
  br label %49

48:                                               ; preds = %42
  store i32 -5, ptr %5, align 4, !tbaa !11
  br label %49

49:                                               ; preds = %48, %47
  br label %50

50:                                               ; preds = %49, %41, %31, %25, %15
  %51 = load ptr, ptr %2, align 8, !tbaa !4
  %52 = call i32 @ftp_close(ptr noundef %51)
  %53 = load i32, ptr %5, align 4, !tbaa !11
  call void @llvm.lifetime.end.p0(i64 4, ptr %5) #9
  call void @llvm.lifetime.end.p0(i64 4096, ptr %4) #9
  call void @llvm.lifetime.end.p0(i64 8, ptr %3) #9
  ret i32 %53
}