; Function Attrs: nounwind uwtable
define internal range(i32 -2147483648, 1) i32 @ftp_delete(ptr noundef %0) #0 {
  %2 = alloca [4096 x i8], align 16
  %3 = getelementptr inbounds nuw i8, ptr %0, i64 16
  %4 = load ptr, ptr %3, align 8, !tbaa !4
  call void @llvm.lifetime.start.p0(i64 4096, ptr nonnull %2) #10
  %5 = getelementptr inbounds nuw i8, ptr %0, i64 24
  %6 = load ptr, ptr %5, align 8, !tbaa !26
  %7 = tail call fastcc i32 @ftp_connect(ptr noundef %0, ptr noundef %6)
  %8 = icmp slt i32 %7, 0
  br i1 %8, label %ftp_send_command.exit14.thread, label %9

9:                                                ; preds = %1
  %10 = getelementptr inbounds nuw i8, ptr %4, i64 1096
  %11 = load ptr, ptr %10, align 8, !tbaa !19
  %12 = call i32 (ptr, i64, ptr, ...) @snprintf(ptr noundef nonnull dereferenceable(1) %2, i64 noundef 4096, ptr noundef nonnull @.str.69, ptr noundef %11) #10
  %13 = icmp ugt i32 %12, 4095
  br i1 %13, label %ftp_send_command.exit14.thread, label %14

14:                                               ; preds = %9
  %15 = getelementptr inbounds nuw i8, ptr %4, i64 8
  %16 = load ptr, ptr %15, align 8, !tbaa !15
  %.not16.i = icmp eq ptr %16, null
  br i1 %.not16.i, label %ftp_send_command.exit.thread, label %17

17:                                               ; preds = %14
  %18 = call i64 @strlen(ptr noundef nonnull dereferenceable(1) %2) #11
  %19 = trunc i64 %18 to i32
  %20 = call i32 @ffurl_write2(ptr noundef nonnull %16, ptr noundef nonnull %2, i32 noundef %19) #10
  %or.cond = icmp slt i32 %20, 1
  br i1 %or.cond, label %ftp_send_command.exit.thread, label %ftp_send_command.exit

ftp_send_command.exit:                            ; preds = %17
  %21 = call fastcc i32 @ftp_status(ptr noundef nonnull %4, ptr noundef null, ptr noundef nonnull @ftp_delete.del_codes)
  %22 = icmp eq i32 %21, 250
  br i1 %22, label %ftp_send_command.exit14.thread, label %ftp_send_command.exit.thread

ftp_send_command.exit.thread:                     ; preds = %17, %14, %ftp_send_command.exit
  %23 = load ptr, ptr %10, align 8, !tbaa !19
  %24 = call i32 (ptr, i64, ptr, ...) @snprintf(ptr noundef nonnull dereferenceable(1) %2, i64 noundef 4096, ptr noundef nonnull @.str.70, ptr noundef %23) #10
  %25 = icmp ugt i32 %24, 4095
  br i1 %25, label %ftp_send_command.exit14.thread, label %26

26:                                               ; preds = %ftp_send_command.exit.thread
  %27 = load ptr, ptr %15, align 8, !tbaa !15
  %.not16.i11 = icmp eq ptr %27, null
  br i1 %.not16.i11, label %ftp_send_command.exit14.thread, label %28

28:                                               ; preds = %26
  %29 = call i64 @strlen(ptr noundef nonnull dereferenceable(1) %2) #11
  %30 = trunc i64 %29 to i32
  %31 = call i32 @ffurl_write2(ptr noundef nonnull %27, ptr noundef nonnull %2, i32 noundef %30) #10
  %or.cond18 = icmp slt i32 %31, 1
  br i1 %or.cond18, label %ftp_send_command.exit14.thread, label %ftp_send_command.exit14

ftp_send_command.exit14:                          ; preds = %28
  %32 = call fastcc i32 @ftp_status(ptr noundef nonnull %4, ptr noundef null, ptr noundef nonnull @ftp_delete.rmd_codes)
  %.fr = freeze i32 %32
  %33 = icmp eq i32 %.fr, 250
  %spec.select = select i1 %33, i32 0, i32 -5
  br label %ftp_send_command.exit14.thread

ftp_send_command.exit14.thread:                   ; preds = %ftp_send_command.exit14, %28, %26, %ftp_send_command.exit.thread, %ftp_send_command.exit, %9, %1
  %.0 = phi i32 [ %7, %1 ], [ -38, %9 ], [ 0, %ftp_send_command.exit ], [ -38, %ftp_send_command.exit.thread ], [ -5, %26 ], [ -5, %28 ], [ %spec.select, %ftp_send_command.exit14 ]
  %34 = load ptr, ptr %3, align 8, !tbaa !4
  %35 = getelementptr inbounds nuw i8, ptr %34, i64 8
  %36 = call i32 @ffurl_closep(ptr noundef nonnull %35) #10
  %37 = getelementptr inbounds nuw i8, ptr %34, i64 16
  %38 = call i32 @ffurl_closep(ptr noundef nonnull %37) #10
  %39 = getelementptr inbounds nuw i8, ptr %34, i64 1140
  store i32 5, ptr %39, align 4, !tbaa !23
  %40 = getelementptr inbounds nuw i8, ptr %34, i64 1080
  call void @av_freep(ptr noundef nonnull %40) #10
  %41 = getelementptr inbounds nuw i8, ptr %34, i64 1088
  call void @av_freep(ptr noundef nonnull %41) #10
  %42 = getelementptr inbounds nuw i8, ptr %34, i64 1072
  call void @av_freep(ptr noundef nonnull %42) #10
  %43 = getelementptr inbounds nuw i8, ptr %34, i64 1096
  call void @av_freep(ptr noundef nonnull %43) #10
  %44 = getelementptr inbounds nuw i8, ptr %34, i64 1152
  call void @av_freep(ptr noundef nonnull %44) #10
  call void @llvm.lifetime.end.p0(i64 4096, ptr nonnull %2) #10
  ret i32 %.0
}